Certificate:
    Data:
        Version: 3 (0x2)
        Serial Number: 1048577 (0x100001)
    Signature Algorithm: sha1WithRSAEncryption
        Issuer: C=ES, ST=Espa\xC3\x83\xC2\xB1a, L=A Coru\xC3\x83\xC2\xB1a, O=Arch, CN=Rodrigo/emailAddress=rodarima@gmail.com
        Validity
            Not Before: Dec 17 01:18:25 2013 GMT
            Not After : Dec 17 01:18:25 2014 GMT
        Subject: C=ES, ST=Espa\xC3\x83\xC2\xB1a, O=Arch, CN=Ejemplo/emailAddress=rodarima@gmail.com
        Subject Public Key Info:
            Public Key Algorithm: rsaEncryption
                Public-Key: (1024 bit)
                Modulus:
                    00:d1:41:5f:4c:1c:31:52:4e:30:e4:f7:f1:1d:6a:
                    13:25:45:0e:b8:e8:06:16:91:71:76:3b:5d:51:a6:
                    5e:9c:3f:3f:f7:0c:3a:a1:cd:b3:dd:55:eb:ba:9b:
                    f3:93:ce:10:e6:76:74:21:a8:df:77:81:18:09:7e:
                    f0:fd:6d:6e:30:6e:86:2d:37:b2:39:d5:28:dc:c0:
                    52:49:41:2b:25:cb:1f:e7:0a:69:3a:a1:40:ae:54:
                    e3:bd:5e:38:b9:76:93:60:96:50:bd:d1:16:82:0b:
                    97:ae:56:f6:e7:38:e9:7d:c2:c2:0e:ba:67:aa:ca:
                    3b:37:cd:33:f0:08:b4:ba:15
                Exponent: 65537 (0x10001)
        X509v3 extensions:
            X509v3 Basic Constraints: 
                CA:FALSE
            Netscape Comment: 
                OpenSSL Generated Certificate
            X509v3 Subject Key Identifier: 
                5D:B8:CF:0E:D0:B1:EC:ED:74:43:2D:80:71:68:8A:EA:3E:0D:7D:BC
            X509v3 Authority Key Identifier: 
                keyid:E4:52:D2:FB:67:E0:14:6F:D7:7E:2E:21:F7:17:D6:11:EA:D6:2B:C4

    Signature Algorithm: sha1WithRSAEncryption
         4d:84:0e:e8:15:d9:fa:96:24:7e:d4:d8:e5:68:3f:dc:40:ea:
         3c:1c:17:f5:81:f8:f6:d9:6e:f0:9e:d0:12:3e:7e:b5:24:77:
         4d:b5:e1:c8:1a:82:33:65:fc:98:ec:f8:f4:54:ba:8f:1d:1c:
         09:8d:d4:b5:56:11:92:1b:61:36:af:c0:f9:13:6b:20:2f:82:
         b6:e0:e3:5b:a4:e9:72:69:3b:fa:06:9f:07:81:75:03:e6:4c:
         55:c9:b3:0c:ec:56:65:b0:1e:b5:65:24:ab:44:46:6d:0f:86:
         08:9f:9b:5c:07:23:b9:23:f4:f3:93:5e:8d:1c:90:a3:9e:db:
         11:65
-----BEGIN CERTIFICATE-----
MIIC0zCCAjygAwIBAgIDEAABMA0GCSqGSIb3DQEBBQUAMHsxCzAJBgNVBAYTAkVT
MRIwEAYDVQQIDAlFc3Bhw4PCsWExFDASBgNVBAcMC0EgQ29ydcODwrFhMQ0wCwYD
VQQKDARBcmNoMRAwDgYDVQQDDAdSb2RyaWdvMSEwHwYJKoZIhvcNAQkBFhJyb2Rh
cmltYUBnbWFpbC5jb20wHhcNMTMxMjE3MDExODI1WhcNMTQxMjE3MDExODI1WjBl
MQswCQYDVQQGEwJFUzESMBAGA1UECAwJRXNwYcODwrFhMQ0wCwYDVQQKDARBcmNo
MRAwDgYDVQQDDAdFamVtcGxvMSEwHwYJKoZIhvcNAQkBFhJyb2RhcmltYUBnbWFp
bC5jb20wgZ8wDQYJKoZIhvcNAQEBBQADgY0AMIGJAoGBANFBX0wcMVJOMOT38R1q
EyVFDrjoBhaRcXY7XVGmXpw/P/cMOqHNs91V67qb85POEOZ2dCGo33eBGAl+8P1t
bjBuhi03sjnVKNzAUklBKyXLH+cKaTqhQK5U471eOLl2k2CWUL3RFoILl65W9uc4
6X3Cwg66Z6rKOzfNM/AItLoVAgMBAAGjezB5MAkGA1UdEwQCMAAwLAYJYIZIAYb4
QgENBB8WHU9wZW5TU0wgR2VuZXJhdGVkIENlcnRpZmljYXRlMB0GA1UdDgQWBBRd
uM8O0LHs7XRDLYBxaIrqPg19vDAfBgNVHSMEGDAWgBTkUtL7Z+AUb9d+LiH3F9YR
6tYrxDANBgkqhkiG9w0BAQUFAAOBgQBNhA7oFdn6liR+1NjlaD/cQOo8HBf1gfj2
2W7wntASPn61JHdNteHIGoIzZfyY7Pj0VLqPHRwJjdS1VhGSG2E2r8D5E2sgL4K2
4ONbpOlyaTv6Bp8HgXUD5kxVybMM7FZlsB61ZSSrREZtD4YIn5tcByO5I/Tzk16N
HJCjntsRZQ==
-----END CERTIFICATE-----
