Certificate:
    Data:
        Version: 3 (0x2)
        Serial Number: 1048578 (0x100002)
    Signature Algorithm: sha1WithRSAEncryption
        Issuer: C=ES, ST=Espa\xC3\x83\xC2\xB1a, L=A Coru\xC3\x83\xC2\xB1a, O=Arch, CN=Rodrigo/emailAddress=rodarima@gmail.com
        Validity
            Not Before: Dec 17 01:57:47 2013 GMT
            Not After : Dec 17 01:57:47 2014 GMT
        Subject: C=ES, ST=Espa\xC3\x83\xC2\xB1a, O=Arch, CN=localhost/emailAddress=rodarima@gmail.com
        Subject Public Key Info:
            Public Key Algorithm: rsaEncryption
                Public-Key: (1024 bit)
                Modulus:
                    00:b5:26:0a:df:3b:36:bc:3a:d5:a8:c3:d6:9b:1c:
                    a2:2c:4a:30:00:1b:41:37:4b:4f:cf:a5:b6:97:bd:
                    97:19:56:ea:64:a3:0e:eb:4c:5f:d6:5c:f3:6f:e9:
                    7d:a2:9c:c0:88:18:00:7a:22:6a:0e:ca:36:87:01:
                    60:b3:5d:05:6b:1b:31:d9:44:ae:db:f9:86:76:eb:
                    a8:1d:36:57:9d:f5:ea:37:c0:c5:d2:b9:c5:3f:d8:
                    00:94:a8:a4:4e:30:b5:be:0d:d3:a2:33:c0:1d:84:
                    07:b0:41:c2:b2:6f:04:1b:1d:d3:21:cc:8f:98:b8:
                    69:61:aa:e6:43:e0:60:84:65
                Exponent: 65537 (0x10001)
        X509v3 extensions:
            X509v3 Basic Constraints: 
                CA:FALSE
            Netscape Comment: 
                OpenSSL Generated Certificate
            X509v3 Subject Key Identifier: 
                80:26:7E:DF:4A:14:AB:9A:59:2E:64:4F:0C:26:3D:0A:46:AE:A1:CA
            X509v3 Authority Key Identifier: 
                keyid:E4:52:D2:FB:67:E0:14:6F:D7:7E:2E:21:F7:17:D6:11:EA:D6:2B:C4

    Signature Algorithm: sha1WithRSAEncryption
         8e:f3:a4:a4:17:82:70:5a:68:d1:2d:7b:f3:89:c2:26:77:a6:
         53:0f:11:b4:11:36:45:12:94:04:e9:19:29:34:06:9d:34:2b:
         73:59:de:c6:03:fb:b4:0c:0b:bf:b8:19:9b:4b:8e:9c:d0:a1:
         5c:c7:7c:62:b6:f2:8f:2c:20:6b:1f:c0:48:8f:f7:9b:3f:d6:
         73:08:19:d9:2f:44:21:6a:9d:d0:d8:f3:9b:d3:52:4d:49:37:
         eb:aa:63:55:64:40:56:d7:0d:cf:75:ac:1b:bf:d7:fc:99:cf:
         f8:e7:f3:96:00:02:53:a9:af:b1:17:4f:f6:ad:fb:91:89:87:
         74:f4
-----BEGIN CERTIFICATE-----
MIIC1TCCAj6gAwIBAgIDEAACMA0GCSqGSIb3DQEBBQUAMHsxCzAJBgNVBAYTAkVT
MRIwEAYDVQQIDAlFc3Bhw4PCsWExFDASBgNVBAcMC0EgQ29ydcODwrFhMQ0wCwYD
VQQKDARBcmNoMRAwDgYDVQQDDAdSb2RyaWdvMSEwHwYJKoZIhvcNAQkBFhJyb2Rh
cmltYUBnbWFpbC5jb20wHhcNMTMxMjE3MDE1NzQ3WhcNMTQxMjE3MDE1NzQ3WjBn
MQswCQYDVQQGEwJFUzESMBAGA1UECAwJRXNwYcODwrFhMQ0wCwYDVQQKDARBcmNo
MRIwEAYDVQQDDAlsb2NhbGhvc3QxITAfBgkqhkiG9w0BCQEWEnJvZGFyaW1hQGdt
YWlsLmNvbTCBnzANBgkqhkiG9w0BAQEFAAOBjQAwgYkCgYEAtSYK3zs2vDrVqMPW
mxyiLEowABtBN0tPz6W2l72XGVbqZKMO60xf1lzzb+l9opzAiBgAeiJqDso2hwFg
s10Faxsx2USu2/mGduuoHTZXnfXqN8DF0rnFP9gAlKikTjC1vg3TojPAHYQHsEHC
sm8EGx3TIcyPmLhpYarmQ+BghGUCAwEAAaN7MHkwCQYDVR0TBAIwADAsBglghkgB
hvhCAQ0EHxYdT3BlblNTTCBHZW5lcmF0ZWQgQ2VydGlmaWNhdGUwHQYDVR0OBBYE
FIAmft9KFKuaWS5kTwwmPQpGrqHKMB8GA1UdIwQYMBaAFORS0vtn4BRv134uIfcX
1hHq1ivEMA0GCSqGSIb3DQEBBQUAA4GBAI7zpKQXgnBaaNEte/OJwiZ3plMPEbQR
NkUSlATpGSk0Bp00K3NZ3sYD+7QMC7+4GZtLjpzQoVzHfGK28o8sIGsfwEiP95s/
1nMIGdkvRCFqndDY85vTUk1JN+uqY1VkQFbXDc91rBu/1/yZz/jn85YAAlOpr7EX
T/at+5GJh3T0
-----END CERTIFICATE-----
